target datalayout = "e-m:e-p270:32:32-p271:32:32-p272:64:64-i64:64-i128:128-f80:128-n8:16:32:64-S128"
target triple = "x86_64-unknown-linux-gnu"

%"class.std::__cxx11::basic_string" = type { %"struct.std::__cxx11::basic_string<char>::_Alloc_hider", i64, %union.anon }
%"struct.std::__cxx11::basic_string<char>::_Alloc_hider" = type { ptr }
%union.anon = type { i64, [8 x i8] }
%"class.std::basic_ios" = type { %"class.std::ios_base", ptr, i8, i8, ptr, ptr, ptr, ptr }
%"class.std::ios_base" = type { ptr, i64, i64, i32, i32, i32, ptr, %"struct.std::ios_base::_Words", [8 x %"struct.std::ios_base::_Words"], i32, ptr, %"class.std::locale" }
%"struct.std::ios_base::_Words" = type { ptr, i64 }
%"class.std::locale" = type { ptr }
%"class.std::__cxx11::basic_stringstream" = type { %"class.std::basic_iostream.base", %"class.std::__cxx11::basic_stringbuf", %"class.std::basic_ios" }
%"class.std::basic_iostream.base" = type { %"class.std::basic_istream.base", %"class.std::basic_ostream.base" }
%"class.std::basic_istream.base" = type { ptr, i64 }
%"class.std::basic_ostream.base" = type { ptr }
%"class.std::__cxx11::basic_stringbuf" = type { %"class.std::basic_streambuf", i32, %"class.std::__cxx11::basic_string" }
%"class.std::basic_streambuf" = type { ptr, ptr, ptr, ptr, ptr, ptr, ptr, %"class.std::locale" }
%"class.std::vector.17" = type { %"struct.std::_Vector_base.18" }
%"struct.std::_Vector_base.18" = type { %"struct.std::_Vector_base<char, std::allocator<char>>::_Vector_impl" }
%"struct.std::_Vector_base<char, std::allocator<char>>::_Vector_impl" = type { %"struct.std::_Vector_base<char, std::allocator<char>>::_Vector_impl_data" }
%"struct.std::_Vector_base<char, std::allocator<char>>::_Vector_impl_data" = type { ptr, ptr, ptr }
%"class.testing::internal::MatchMatrix" = type { i64, i64, %"class.std::vector.17" }

@.str.2 = private unnamed_addr constant [1 x i8] zeroinitializer, align 1
@.str.18 = private unnamed_addr constant [2 x i8] c";\00", align 1

; Function Attrs: mustprogress nounwind uwtable
define linkonce_odr noundef nonnull align 1 dereferenceable(1) ptr @_ZNKSt6vectorIcSaIcEEixEm(ptr noundef nonnull align 8 dereferenceable(24) %this, i64 noundef %__n) #7 comdat align 2 {
entry:
  %this.addr = alloca ptr, align 8
  %__n.addr = alloca i64, align 8
  store ptr %this, ptr %this.addr, align 8
  store i64 %__n, ptr %__n.addr, align 8
  %this1 = load ptr, ptr %this.addr, align 8
  %_M_impl = getelementptr inbounds %"struct.std::_Vector_base.18", ptr %this1, i32 0, i32 0
  %_M_start = getelementptr inbounds %"struct.std::_Vector_base<char, std::allocator<char>>::_Vector_impl_data", ptr %_M_impl, i32 0, i32 0
  %0 = load ptr, ptr %_M_start, align 8
  %1 = load i64, ptr %__n.addr, align 8
  %add.ptr = getelementptr inbounds i8, ptr %0, i64 %1
  ret ptr %add.ptr
}

; Function Attrs: mustprogress nounwind uwtable
define linkonce_odr noundef i64 @_ZNK7testing8internal11MatchMatrix10SpaceIndexEmm(ptr noundef nonnull align 8 dereferenceable(40) %this, i64 noundef %ilhs, i64 noundef %irhs) #7 comdat align 2 {
entry:
  %this.addr = alloca ptr, align 8
  %ilhs.addr = alloca i64, align 8
  %irhs.addr = alloca i64, align 8
  store ptr %this, ptr %this.addr, align 8
  store i64 %ilhs, ptr %ilhs.addr, align 8
  store i64 %irhs, ptr %irhs.addr, align 8
  %this1 = load ptr, ptr %this.addr, align 8
  %0 = load i64, ptr %ilhs.addr, align 8
  %num_matchers_ = getelementptr inbounds %"class.testing::internal::MatchMatrix", ptr %this1, i32 0, i32 1
  %1 = load i64, ptr %num_matchers_, align 8
  %mul = mul i64 %0, %1
  %2 = load i64, ptr %irhs.addr, align 8
  %add = add i64 %mul, %2
  ret i64 %add
}

; Function Attrs: mustprogress nounwind uwtable
define linkonce_odr noundef zeroext i1 @_ZNK7testing8internal11MatchMatrix7HasEdgeEmm(ptr noundef nonnull align 8 dereferenceable(40) %this, i64 noundef %ilhs, i64 noundef %irhs) #7 comdat align 2 {
entry:
  %this.addr = alloca ptr, align 8
  %ilhs.addr = alloca i64, align 8
  %irhs.addr = alloca i64, align 8
  store ptr %this, ptr %this.addr, align 8
  store i64 %ilhs, ptr %ilhs.addr, align 8
  store i64 %irhs, ptr %irhs.addr, align 8
  %this1 = load ptr, ptr %this.addr, align 8
  %matched_ = getelementptr inbounds %"class.testing::internal::MatchMatrix", ptr %this1, i32 0, i32 2
  %0 = load i64, ptr %ilhs.addr, align 8
  %1 = load i64, ptr %irhs.addr, align 8
  %call = call noundef i64 @_ZNK7testing8internal11MatchMatrix10SpaceIndexEmm(ptr noundef nonnull align 8 dereferenceable(40) %this1, i64 noundef %0, i64 noundef %1)
  %call2 = call noundef nonnull align 1 dereferenceable(1) ptr @_ZNKSt6vectorIcSaIcEEixEm(ptr noundef nonnull align 8 dereferenceable(24) %matched_, i64 noundef %call) #3
  %2 = load i8, ptr %call2, align 1
  %conv = sext i8 %2 to i32
  %cmp = icmp eq i32 %conv, 1
  ret i1 %cmp
}

; Function Attrs: mustprogress nounwind uwtable
define linkonce_odr noundef i64 @_ZNK7testing8internal11MatchMatrix7RhsSizeEv(ptr noundef nonnull align 8 dereferenceable(40) %this) #7 comdat align 2 {
entry:
  %this.addr = alloca ptr, align 8
  store ptr %this, ptr %this.addr, align 8
  %this1 = load ptr, ptr %this.addr, align 8
  %num_matchers_ = getelementptr inbounds %"class.testing::internal::MatchMatrix", ptr %this1, i32 0, i32 1
  %0 = load i64, ptr %num_matchers_, align 8
  ret i64 %0
}

; Function Attrs: mustprogress nounwind uwtable
define linkonce_odr noundef i64 @_ZNK7testing8internal11MatchMatrix7LhsSizeEv(ptr noundef nonnull align 8 dereferenceable(40) %this) #7 comdat align 2 {
entry:
  %this.addr = alloca ptr, align 8
  store ptr %this, ptr %this.addr, align 8
  %this1 = load ptr, ptr %this.addr, align 8
  %num_elements_ = getelementptr inbounds %"class.testing::internal::MatchMatrix", ptr %this1, i32 0, i32 0
  %0 = load i64, ptr %num_elements_, align 8
  ret i64 %0
}

; Function Attrs: mustprogress uwtable
define void @_ZNK7testing8internal11MatchMatrix11DebugStringB5cxx11Ev(ptr noalias sret(%"class.std::__cxx11::basic_string") align 8 %agg.result, ptr noundef nonnull align 8 dereferenceable(40) %this) #4 align 2 personality ptr @__gxx_personality_v0 {
entry:
  %result.ptr = alloca ptr, align 8
  %this.addr = alloca ptr, align 8
  %ss = alloca %"class.std::__cxx11::basic_stringstream", align 8
  %sep = alloca ptr, align 8
  %i = alloca i64, align 8
  %exn.slot = alloca ptr, align 8
  %ehselector.slot = alloca i32, align 4
  %j = alloca i64, align 8
  store ptr %agg.result, ptr %result.ptr, align 8
  store ptr %this, ptr %this.addr, align 8
  %this1 = load ptr, ptr %this.addr, align 8
  call void @_ZNSt7__cxx1118basic_stringstreamIcSt11char_traitsIcESaIcEEC1Ev(ptr noundef nonnull align 8 dereferenceable(128) %ss)
  store ptr @.str.2, ptr %sep, align 8
  store i64 0, ptr %i, align 8
  br label %for.cond

for.cond:                                         ; preds = %for.inc14, %entry
  %0 = load i64, ptr %i, align 8
  %call = invoke noundef i64 @_ZNK7testing8internal11MatchMatrix7LhsSizeEv(ptr noundef nonnull align 8 dereferenceable(40) %this1)
          to label %invoke.cont unwind label %lpad

invoke.cont:                                      ; preds = %for.cond
  %cmp = icmp ult i64 %0, %call
  br i1 %cmp, label %for.body, label %for.end16

for.body:                                         ; preds = %invoke.cont
  %add.ptr = getelementptr inbounds i8, ptr %ss, i64 16
  %1 = load ptr, ptr %sep, align 8
  %call3 = invoke noundef nonnull align 8 dereferenceable(8) ptr @_ZStlsISt11char_traitsIcEERSt13basic_ostreamIcT_ES5_PKc(ptr noundef nonnull align 8 dereferenceable(8) %add.ptr, ptr noundef %1)
          to label %invoke.cont2 unwind label %lpad

invoke.cont2:                                     ; preds = %for.body
  store i64 0, ptr %j, align 8
  br label %for.cond4

for.cond4:                                        ; preds = %for.inc, %invoke.cont2
  %2 = load i64, ptr %j, align 8
  %call6 = invoke noundef i64 @_ZNK7testing8internal11MatchMatrix7RhsSizeEv(ptr noundef nonnull align 8 dereferenceable(40) %this1)
          to label %invoke.cont5 unwind label %lpad

invoke.cont5:                                     ; preds = %for.cond4
  %cmp7 = icmp ult i64 %2, %call6
  br i1 %cmp7, label %for.body8, label %for.end

for.body8:                                        ; preds = %invoke.cont5
  %add.ptr9 = getelementptr inbounds i8, ptr %ss, i64 16
  %3 = load i64, ptr %i, align 8
  %4 = load i64, ptr %j, align 8
  %call11 = invoke noundef zeroext i1 @_ZNK7testing8internal11MatchMatrix7HasEdgeEmm(ptr noundef nonnull align 8 dereferenceable(40) %this1, i64 noundef %3, i64 noundef %4)
          to label %invoke.cont10 unwind label %lpad

invoke.cont10:                                    ; preds = %for.body8
  %call13 = invoke noundef nonnull align 8 dereferenceable(8) ptr @_ZNSolsEb(ptr noundef nonnull align 8 dereferenceable(8) %add.ptr9, i1 noundef zeroext %call11)
          to label %invoke.cont12 unwind label %lpad

invoke.cont12:                                    ; preds = %invoke.cont10
  br label %for.inc

for.inc:                                          ; preds = %invoke.cont12
  %5 = load i64, ptr %j, align 8
  %inc = add i64 %5, 1
  store i64 %inc, ptr %j, align 8
  br label %for.cond4, !llvm.loop !16

lpad:                                             ; preds = %for.end16, %invoke.cont10, %for.body8, %for.cond4, %for.body, %for.cond
  %6 = landingpad { ptr, i32 }
          cleanup
  %7 = extractvalue { ptr, i32 } %6, 0
  store ptr %7, ptr %exn.slot, align 8
  %8 = extractvalue { ptr, i32 } %6, 1
  store i32 %8, ptr %ehselector.slot, align 4
  call void @_ZNSt7__cxx1118basic_stringstreamIcSt11char_traitsIcESaIcEED1Ev(ptr noundef nonnull align 8 dereferenceable(128) %ss) #3
  br label %eh.resume

for.end:                                          ; preds = %invoke.cont5
  store ptr @.str.18, ptr %sep, align 8
  br label %for.inc14

for.inc14:                                        ; preds = %for.end
  %9 = load i64, ptr %i, align 8
  %inc15 = add i64 %9, 1
  store i64 %inc15, ptr %i, align 8
  br label %for.cond, !llvm.loop !17

for.end16:                                        ; preds = %invoke.cont
  invoke void @_ZNKSt7__cxx1118basic_stringstreamIcSt11char_traitsIcESaIcEE3strEv(ptr sret(%"class.std::__cxx11::basic_string") align 8 %agg.result, ptr noundef nonnull align 8 dereferenceable(128) %ss)
          to label %invoke.cont17 unwind label %lpad

invoke.cont17:                                    ; preds = %for.end16
  call void @_ZNSt7__cxx1118basic_stringstreamIcSt11char_traitsIcESaIcEED1Ev(ptr noundef nonnull align 8 dereferenceable(128) %ss) #3
  ret void

eh.resume:                                        ; preds = %lpad
  %exn = load ptr, ptr %exn.slot, align 8
  %sel = load i32, ptr %ehselector.slot, align 4
  %lpad.val = insertvalue { ptr, i32 } poison, ptr %exn, 0
  %lpad.val18 = insertvalue { ptr, i32 } %lpad.val, i32 %sel, 1
  resume { ptr, i32 } %lpad.val18
}