; Function Attrs: mustprogress uwtable
define void @_ZNK7testing8internal11MatchMatrix11DebugStringB5cxx11Ev(ptr noalias sret(%"class.std::__cxx11::basic_string") align 8 %agg.result, ptr nocapture noundef nonnull readonly align 8 dereferenceable(40) %this) local_unnamed_addr #3 align 2 personality ptr @__gxx_personality_v0 {
entry:
  %ss = alloca %"class.std::__cxx11::basic_stringstream", align 8
  call void @_ZNSt7__cxx1118basic_stringstreamIcSt11char_traitsIcESaIcEEC1Ev(ptr noundef nonnull align 8 dereferenceable(128) %ss)
  %0 = load i64, ptr %this, align 8
  %cmp12.not = icmp eq i64 %0, 0
  br i1 %cmp12.not, label %for.end16, label %for.body.lr.ph

for.body.lr.ph:                                   ; preds = %entry
  %add.ptr = getelementptr inbounds i8, ptr %ss, i64 16
  %num_matchers_.i = getelementptr inbounds i8, ptr %this, i64 8
  %matched_.i = getelementptr inbounds i8, ptr %this, i64 16
  br label %for.body

for.body:                                         ; preds = %for.body.lr.ph, %for.end
  %sep.014 = phi ptr [ @.str.2, %for.body.lr.ph ], [ @.str.18, %for.end ]
  %i.013 = phi i64 [ 0, %for.body.lr.ph ], [ %inc15, %for.end ]
  %call3 = invoke noundef nonnull align 8 dereferenceable(8) ptr @_ZStlsISt11char_traitsIcEERSt13basic_ostreamIcT_ES5_PKc(ptr noundef nonnull align 8 dereferenceable(8) %add.ptr, ptr noundef nonnull %sep.014)
          to label %for.cond4.preheader unwind label %lpad.loopexit.split-lp.loopexit

for.cond4.preheader:                              ; preds = %for.body
  %1 = load i64, ptr %num_matchers_.i, align 8
  %cmp710.not = icmp eq i64 %1, 0
  br i1 %cmp710.not, label %for.end, label %for.body8

for.body8:                                        ; preds = %for.cond4.preheader, %for.inc
  %2 = phi i64 [ %6, %for.inc ], [ %1, %for.cond4.preheader ]
  %j.011 = phi i64 [ %inc, %for.inc ], [ 0, %for.cond4.preheader ]
  %mul.i.i = mul i64 %2, %i.013
  %3 = load ptr, ptr %matched_.i, align 8
  %4 = getelementptr i8, ptr %3, i64 %mul.i.i
  %add.ptr.i.i = getelementptr i8, ptr %4, i64 %j.011
  %5 = load i8, ptr %add.ptr.i.i, align 1
  %cmp.i = icmp eq i8 %5, 1
  %call13 = invoke noundef nonnull align 8 dereferenceable(8) ptr @_ZNSolsEb(ptr noundef nonnull align 8 dereferenceable(8) %add.ptr, i1 noundef zeroext %cmp.i)
          to label %for.inc unwind label %lpad.loopexit

for.inc:                                          ; preds = %for.body8
  %inc = add nuw i64 %j.011, 1
  %6 = load i64, ptr %num_matchers_.i, align 8
  %cmp7 = icmp ult i64 %inc, %6
  br i1 %cmp7, label %for.body8, label %for.end, !llvm.loop !51

lpad.loopexit:                                    ; preds = %for.body8
  %lpad.loopexit5 = landingpad { ptr, i32 }
          cleanup
  br label %lpad

lpad.loopexit.split-lp.loopexit:                  ; preds = %for.body
  %lpad.loopexit7 = landingpad { ptr, i32 }
          cleanup
  br label %lpad

lpad.loopexit.split-lp.loopexit.split-lp:         ; preds = %for.end16
  %lpad.loopexit.split-lp8 = landingpad { ptr, i32 }
          cleanup
  br label %lpad

lpad:                                             ; preds = %lpad.loopexit.split-lp.loopexit, %lpad.loopexit.split-lp.loopexit.split-lp, %lpad.loopexit
  %lpad.phi = phi { ptr, i32 } [ %lpad.loopexit5, %lpad.loopexit ], [ %lpad.loopexit7, %lpad.loopexit.split-lp.loopexit ], [ %lpad.loopexit.split-lp8, %lpad.loopexit.split-lp.loopexit.split-lp ]
  call void @_ZNSt7__cxx1118basic_stringstreamIcSt11char_traitsIcESaIcEED1Ev(ptr noundef nonnull align 8 dereferenceable(128) %ss) #26
  resume { ptr, i32 } %lpad.phi

for.end:                                          ; preds = %for.inc, %for.cond4.preheader
  %inc15 = add nuw i64 %i.013, 1
  %7 = load i64, ptr %this, align 8
  %cmp = icmp ult i64 %inc15, %7
  br i1 %cmp, label %for.body, label %for.end16, !llvm.loop !52

for.end16:                                        ; preds = %for.end, %entry
  invoke void @_ZNKSt7__cxx1118basic_stringstreamIcSt11char_traitsIcESaIcEE3strEv(ptr sret(%"class.std::__cxx11::basic_string") align 8 %agg.result, ptr noundef nonnull align 8 dereferenceable(128) %ss)
          to label %invoke.cont17 unwind label %lpad.loopexit.split-lp.loopexit.split-lp

invoke.cont17:                                    ; preds = %for.end16
  call void @_ZNSt7__cxx1118basic_stringstreamIcSt11char_traitsIcESaIcEED1Ev(ptr noundef nonnull align 8 dereferenceable(128) %ss) #26
  ret void
}